; Function Attrs: mustprogress uwtable
define void @_ZNK6icu_756number4impl15CurrencySymbols13getPluralNameENS_14StandardPlural4FormER10UErrorCode(ptr noalias sret(%"class.icu_75::UnicodeString") align 8 %agg.result, ptr noundef nonnull align 8 dereferenceable(232) %this, i32 noundef %plural, ptr noundef nonnull align 4 dereferenceable(4) %status) local_unnamed_addr #1 align 2 personality ptr @__gxx_personality_v0 {
entry:
  %symbolLen = alloca i32, align 4
  %agg.tmp = alloca %"class.icu_75::ConstChar16Ptr", align 8
  %isoCode.i = getelementptr inbounds i8, ptr %this, i64 28
  store i32 0, ptr %symbolLen, align 4
  %fLocaleName = getelementptr inbounds i8, ptr %this, i64 40
  %0 = load ptr, ptr %fLocaleName, align 8
  %call3 = tail call noundef ptr @_ZN6icu_7514StandardPlural10getKeywordENS0_4FormE(i32 noundef %plural)
  %call4 = call ptr @ucurr_getPluralName_75(ptr noundef nonnull %isoCode.i, ptr noundef %0, ptr noundef null, ptr noundef %call3, ptr noundef nonnull %symbolLen, ptr noundef nonnull %status)
  %cmp = icmp eq ptr %call4, %isoCode.i
  br i1 %cmp, label %if.then, label %if.else

if.then:                                          ; preds = %entry
  call void @_ZN6icu_7513UnicodeStringC1EPKDsi(ptr noundef nonnull align 8 dereferenceable(64) %agg.result, ptr noundef nonnull %isoCode.i, i32 noundef 3)
  br label %return

if.else:                                          ; preds = %entry
  store ptr %call4, ptr %agg.tmp, align 8
  %1 = load i32, ptr %symbolLen, align 4
  invoke void @_ZN6icu_7513UnicodeStringC1EaNS_14ConstChar16PtrEi(ptr noundef nonnull align 8 dereferenceable(64) %agg.result, i8 noundef signext 1, ptr noundef nonnull %agg.tmp, i32 noundef %1)
          to label %invoke.cont unwind label %lpad

invoke.cont:                                      ; preds = %if.else
  %2 = load ptr, ptr %agg.tmp, align 8
  call void asm sideeffect "", "rm,~{memory},~{dirflag},~{fpsr},~{flags}"(ptr %2) #11, !srcloc !7
  br label %return

lpad:                                             ; preds = %if.else
  %3 = landingpad { ptr, i32 }
          cleanup
  %4 = load ptr, ptr %agg.tmp, align 8
  call void asm sideeffect "", "rm,~{memory},~{dirflag},~{fpsr},~{flags}"(ptr %4) #11, !srcloc !7
  resume { ptr, i32 } %3

return:                                           ; preds = %invoke.cont, %if.then
  ret void
}